; Function Attrs: mustprogress uwtable
define hidden void @_ZN2cv25VariationalRefinementImpl14RedBlackBufferC2Ev(ptr noundef nonnull align 8 dereferenceable(208) %0) unnamed_addr #0 align 2 personality ptr @__gxx_personality_v0 {
  %2 = alloca %"class.cv::utils::trace::details::Region", align 8
  tail call void @_ZN2cv3MatC2Ev(ptr noundef nonnull align 8 dereferenceable(96) %0) #18
  %3 = load i32, ptr %0, align 8, !tbaa !6
  %4 = and i32 %3, -4096
  %5 = or disjoint i32 %4, 5
  store i32 %5, ptr %0, align 8, !tbaa !6
  %6 = getelementptr inbounds nuw i8, ptr %0, i64 96
  tail call void @_ZN2cv3MatC2Ev(ptr noundef nonnull align 8 dereferenceable(96) %6) #18
  %7 = load i32, ptr %6, align 8, !tbaa !6
  %8 = and i32 %7, -4096
  %9 = or disjoint i32 %8, 5
  store i32 %9, ptr %6, align 8, !tbaa !6
  call void @llvm.lifetime.start.p0(i64 16, ptr nonnull %2) #18
  invoke void @_ZN2cv5utils5trace7details6RegionC1ERKNS3_21LocationStaticStorageE(ptr noundef nonnull align 8 dereferenceable(12) %2, ptr noundef nonnull align 8 dereferenceable(32) @_ZZN2cv25VariationalRefinementImpl14RedBlackBufferC1EvE25__cv_trace_location_fn390)
          to label %10 unwind label %18

10:                                               ; preds = %1
  invoke void @_ZN2cv25VariationalRefinementImpl14RedBlackBuffer7releaseEv(ptr noundef nonnull align 8 dereferenceable(208) %0)
          to label %11 unwind label %20

11:                                               ; preds = %10
  %12 = getelementptr inbounds nuw i8, ptr %2, i64 8
  %13 = load i32, ptr %12, align 8, !tbaa !33
  %.not.i = icmp eq i32 %13, 0
  br i1 %.not.i, label %_ZN2cv5utils5trace7details6RegionD2Ev.exit, label %14

14:                                               ; preds = %11
  invoke void @_ZN2cv5utils5trace7details6Region7destroyEv(ptr noundef nonnull align 8 dereferenceable(12) %2)
          to label %_ZN2cv5utils5trace7details6RegionD2Ev.exit unwind label %15

15:                                               ; preds = %14
  %16 = landingpad { ptr, i32 }
          catch ptr null
  %17 = extractvalue { ptr, i32 } %16, 0
  call void @__clang_call_terminate(ptr %17) #19
  unreachable

_ZN2cv5utils5trace7details6RegionD2Ev.exit:       ; preds = %11, %14
  call void @llvm.lifetime.end.p0(i64 16, ptr nonnull %2) #18
  ret void

18:                                               ; preds = %1
  %19 = landingpad { ptr, i32 }
          cleanup
  br label %22

20:                                               ; preds = %10
  %21 = landingpad { ptr, i32 }
          cleanup
  call void @_ZN2cv5utils5trace7details6RegionD2Ev(ptr noundef nonnull align 8 dereferenceable(12) %2) #18
  br label %22

22:                                               ; preds = %20, %18
  %.pn = phi { ptr, i32 } [ %21, %20 ], [ %19, %18 ]
  call void @llvm.lifetime.end.p0(i64 16, ptr nonnull %2) #18
  call void @_ZN2cv3MatD2Ev(ptr noundef nonnull align 8 dereferenceable(96) %6) #18
  call void @_ZN2cv3MatD2Ev(ptr noundef nonnull align 8 dereferenceable(96) %0) #18
  resume { ptr, i32 } %.pn
}